In archive libArduinoLedMatrixDriver.a:

MAX7219Driver.o:     file format elf32-avr

Sections:
Idx Name          Size      VMA       LMA       File off  Algn
  0 .text         00000000  00000000  00000000  00000034  2**0
                  CONTENTS, ALLOC, LOAD, READONLY, CODE
  1 .data         00000000  00000000  00000000  00000034  2**0
                  CONTENTS, ALLOC, LOAD, DATA
  2 .bss          00000000  00000000  00000000  00000034  2**0
                  ALLOC
  3 .text._ZN13MAX7219DriverC2Ehhh 0000003a  00000000  00000000  00000034  2**0
                  CONTENTS, ALLOC, LOAD, RELOC, READONLY, CODE
  4 .text._ZN13MAX7219Driver11sendPackageEj 00000044  00000000  00000000  0000006e  2**0
                  CONTENTS, ALLOC, LOAD, RELOC, READONLY, CODE
  5 .text._ZN13MAX7219Driver13writeRegisterEhh 0000000c  00000000  00000000  000000b2  2**0
                  CONTENTS, ALLOC, LOAD, RELOC, READONLY, CODE
  6 .rodata       00000008  00000000  00000000  000000be  2**0
                  CONTENTS, ALLOC, LOAD, READONLY, DATA
  7 .text._ZN13MAX7219Driver4fillEh 0000007a  00000000  00000000  000000c6  2**0
                  CONTENTS, ALLOC, LOAD, RELOC, READONLY, CODE
  8 .text._ZN13MAX7219Driver11setTestModeEh 00000008  00000000  00000000  00000140  2**0
                  CONTENTS, ALLOC, LOAD, RELOC, READONLY, CODE
  9 .text._ZN13MAX7219Driver11setShutdownEh 00000008  00000000  00000000  00000148  2**0
                  CONTENTS, ALLOC, LOAD, RELOC, READONLY, CODE
 10 .text._ZN13MAX7219Driver13setDecodeModeEh 00000008  00000000  00000000  00000150  2**0
                  CONTENTS, ALLOC, LOAD, RELOC, READONLY, CODE
 11 .text._ZN13MAX7219Driver19setDisplayIntensityEh 00000008  00000000  00000000  00000158  2**0
                  CONTENTS, ALLOC, LOAD, RELOC, READONLY, CODE
 12 .text._ZN13MAX7219Driver12setScanLimitEh 00000008  00000000  00000000  00000160  2**0
                  CONTENTS, ALLOC, LOAD, RELOC, READONLY, CODE
 13 .text._ZN13MAX7219Driver13createPackageEhh 0000000a  00000000  00000000  00000168  2**0
                  CONTENTS, ALLOC, LOAD, READONLY, CODE
 14 .comment      00000012  00000000  00000000  00000172  2**0
                  CONTENTS, READONLY

Disassembly of section .text._ZN13MAX7219DriverC2Ehhh:

00000000 <_ZN13MAX7219DriverC1Ehhh>:
   0:	cf 93       	push	r28
   2:	df 93       	push	r29
   4:	00 d0       	rcall	.+0      	; 0x6 <_ZN13MAX7219DriverC1Ehhh+0x6>
   6:	cd b7       	in	r28, 0x3d	; 61
   8:	de b7       	in	r29, 0x3e	; 62
   a:	fc 01       	movw	r30, r24
   c:	86 2f       	mov	r24, r22
   e:	60 83       	st	Z, r22
  10:	41 83       	std	Z+1, r20	; 0x01
  12:	22 83       	std	Z+2, r18	; 0x02
  14:	61 e0       	ldi	r22, 0x01	; 1
  16:	2a 83       	std	Y+2, r18	; 0x02
  18:	49 83       	std	Y+1, r20	; 0x01
  1a:	0e 94 00 00 	call	0	; 0x0 <_ZN13MAX7219DriverC1Ehhh>
  1e:	61 e0       	ldi	r22, 0x01	; 1
  20:	49 81       	ldd	r20, Y+1	; 0x01
  22:	84 2f       	mov	r24, r20
  24:	0e 94 00 00 	call	0	; 0x0 <_ZN13MAX7219DriverC1Ehhh>
  28:	61 e0       	ldi	r22, 0x01	; 1
  2a:	2a 81       	ldd	r18, Y+2	; 0x02
  2c:	82 2f       	mov	r24, r18
  2e:	0f 90       	pop	r0
  30:	0f 90       	pop	r0
  32:	df 91       	pop	r29
  34:	cf 91       	pop	r28
  36:	0c 94 00 00 	jmp	0	; 0x0 <_ZN13MAX7219DriverC1Ehhh>

Disassembly of section .text._ZN13MAX7219Driver11sendPackageEj:

0000003a <_ZN13MAX7219Driver11sendPackageEj>:
  3a:	0f 93       	push	r16
  3c:	1f 93       	push	r17
  3e:	cf 93       	push	r28
  40:	df 93       	push	r29
  42:	ec 01       	movw	r28, r24
  44:	8b 01       	movw	r16, r22
  46:	60 e0       	ldi	r22, 0x00	; 0
  48:	8a 81       	ldd	r24, Y+2	; 0x02
  4a:	0e 94 00 00 	call	0	; 0x0 <__tmp_reg__>
  4e:	21 2f       	mov	r18, r17
  50:	41 e0       	ldi	r20, 0x01	; 1
  52:	69 81       	ldd	r22, Y+1	; 0x01
  54:	88 81       	ld	r24, Y
  56:	0e 94 00 00 	call	0	; 0x0 <__tmp_reg__>
  5a:	11 50       	subi	r17, 0x01	; 1
  5c:	41 e0       	ldi	r20, 0x01	; 1
  5e:	18 30       	cpi	r17, 0x08	; 8
  60:	00 f4       	brcc	.+0      	; 0x62 <_ZN13MAX7219Driver11sendPackageEj+0x28>
  62:	40 e0       	ldi	r20, 0x00	; 0
  64:	20 2f       	mov	r18, r16
  66:	69 81       	ldd	r22, Y+1	; 0x01
  68:	88 81       	ld	r24, Y
  6a:	0e 94 00 00 	call	0	; 0x0 <__tmp_reg__>
  6e:	61 e0       	ldi	r22, 0x01	; 1
  70:	8a 81       	ldd	r24, Y+2	; 0x02
  72:	df 91       	pop	r29
  74:	cf 91       	pop	r28
  76:	1f 91       	pop	r17
  78:	0f 91       	pop	r16
  7a:	0c 94 00 00 	jmp	0	; 0x0 <__tmp_reg__>

Disassembly of section .text._ZN13MAX7219Driver13writeRegisterEhh:

000000b8 <_ZN13MAX7219Driver13writeRegisterEhh>:
  b8:	6f 70       	andi	r22, 0x0F	; 15
  ba:	50 e0       	ldi	r21, 0x00	; 0
  bc:	56 2b       	or	r21, r22
  be:	ba 01       	movw	r22, r20
  c0:	0c 94 00 00 	jmp	0	; 0x0 <__tmp_reg__>

Disassembly of section .text._ZN13MAX7219Driver4fillEh:

00000300 <_ZN13MAX7219Driver4fillEh>:
 300:	bf 92       	push	r11
 302:	cf 92       	push	r12
 304:	df 92       	push	r13
 306:	ef 92       	push	r14
 308:	ff 92       	push	r15
 30a:	0f 93       	push	r16
 30c:	1f 93       	push	r17
 30e:	cf 93       	push	r28
 310:	df 93       	push	r29
 312:	cd b7       	in	r28, 0x3d	; 61
 314:	de b7       	in	r29, 0x3e	; 62
 316:	28 97       	sbiw	r28, 0x08	; 8
 318:	0f b6       	in	r0, 0x3f	; 63
 31a:	f8 94       	cli
 31c:	de bf       	out	0x3e, r29	; 62
 31e:	0f be       	out	0x3f, r0	; 63
 320:	cd bf       	out	0x3d, r28	; 61
 322:	6c 01       	movw	r12, r24
 324:	b6 2e       	mov	r11, r22
 326:	88 e0       	ldi	r24, 0x08	; 8
 328:	e0 e0       	ldi	r30, 0x00	; 0
 32a:	f0 e0       	ldi	r31, 0x00	; 0
 32c:	de 01       	movw	r26, r28
 32e:	11 96       	adiw	r26, 0x01	; 1
 330:	01 90       	ld	r0, Z+
 332:	0d 92       	st	X+, r0
 334:	8a 95       	dec	r24
 336:	01 f4       	brne	.+0      	; 0x338 <_ZN13MAX7219Driver4fillEh+0x38>
 338:	8e 01       	movw	r16, r28
 33a:	0f 5f       	subi	r16, 0xFF	; 255
 33c:	1f 4f       	sbci	r17, 0xFF	; 255
 33e:	7e 01       	movw	r14, r28
 340:	89 e0       	ldi	r24, 0x09	; 9
 342:	e8 0e       	add	r14, r24
 344:	f1 1c       	adc	r15, r1
 346:	f8 01       	movw	r30, r16
 348:	61 91       	ld	r22, Z+
 34a:	8f 01       	movw	r16, r30
 34c:	4b 2d       	mov	r20, r11
 34e:	c6 01       	movw	r24, r12
 350:	0e 94 00 00 	call	0	; 0x0 <__tmp_reg__>
 354:	0e 15       	cp	r16, r14
 356:	1f 05       	cpc	r17, r15
 358:	01 f4       	brne	.+0      	; 0x35a <_ZN13MAX7219Driver4fillEh+0x5a>
 35a:	28 96       	adiw	r28, 0x08	; 8
 35c:	0f b6       	in	r0, 0x3f	; 63
 35e:	f8 94       	cli
 360:	de bf       	out	0x3e, r29	; 62
 362:	0f be       	out	0x3f, r0	; 63
 364:	cd bf       	out	0x3d, r28	; 61
 366:	df 91       	pop	r29
 368:	cf 91       	pop	r28
 36a:	1f 91       	pop	r17
 36c:	0f 91       	pop	r16
 36e:	ff 90       	pop	r15
 370:	ef 90       	pop	r14
 372:	df 90       	pop	r13
 374:	cf 90       	pop	r12
 376:	bf 90       	pop	r11
 378:	08 95       	ret

Disassembly of section .text._ZN13MAX7219Driver11setTestModeEh:

0000067a <_ZN13MAX7219Driver11setTestModeEh>:
 67a:	70 e0       	ldi	r23, 0x00	; 0
 67c:	7f 60       	ori	r23, 0x0F	; 15
 67e:	0c 94 00 00 	jmp	0	; 0x0 <__tmp_reg__>

Disassembly of section .text._ZN13MAX7219Driver11setShutdownEh:

00000cfc <_ZN13MAX7219Driver11setShutdownEh>:
 cfc:	70 e0       	ldi	r23, 0x00	; 0
 cfe:	7c 60       	ori	r23, 0x0C	; 12
 d00:	0c 94 00 00 	jmp	0	; 0x0 <__tmp_reg__>

Disassembly of section .text._ZN13MAX7219Driver13setDecodeModeEh:

00001a00 <_ZN13MAX7219Driver13setDecodeModeEh>:
    1a00:	70 e0       	ldi	r23, 0x00	; 0
    1a02:	79 60       	ori	r23, 0x09	; 9
    1a04:	0c 94 00 00 	jmp	0	; 0x0 <__tmp_reg__>

Disassembly of section .text._ZN13MAX7219Driver19setDisplayIntensityEh:

00003408 <_ZN13MAX7219Driver19setDisplayIntensityEh>:
    3408:	70 e0       	ldi	r23, 0x00	; 0
    340a:	7a 60       	ori	r23, 0x0A	; 10
    340c:	0c 94 00 00 	jmp	0	; 0x0 <__tmp_reg__>

Disassembly of section .text._ZN13MAX7219Driver12setScanLimitEh:

00006818 <_ZN13MAX7219Driver12setScanLimitEh>:
    6818:	70 e0       	ldi	r23, 0x00	; 0
    681a:	7b 60       	ori	r23, 0x0B	; 11
    681c:	0c 94 00 00 	jmp	0	; 0x0 <__tmp_reg__>

Disassembly of section .text._ZN13MAX7219Driver13createPackageEhh:

0000d038 <_ZN13MAX7219Driver13createPackageEhh>:
    d038:	6f 70       	andi	r22, 0x0F	; 15
    d03a:	84 2f       	mov	r24, r20
    d03c:	90 e0       	ldi	r25, 0x00	; 0
    d03e:	96 2b       	or	r25, r22
    d040:	08 95       	ret

LedMatrixDriverMAX7221.o:     file format elf32-avr

Sections:
Idx Name          Size      VMA       LMA       File off  Algn
  0 .text         00000000  00000000  00000000  00000034  2**0
                  CONTENTS, ALLOC, LOAD, READONLY, CODE
  1 .data         00000000  00000000  00000000  00000034  2**0
                  CONTENTS, ALLOC, LOAD, DATA
  2 .bss          00000000  00000000  00000000  00000034  2**0
                  ALLOC
  3 .comment      00000012  00000000  00000000  00000034  2**0
                  CONTENTS, READONLY

LedMatrixMAX7219Driver.o:     file format elf32-avr

Sections:
Idx Name          Size      VMA       LMA       File off  Algn
  0 .group        00000008  00000000  00000000  00000034  2**2
                  CONTENTS, READONLY, EXCLUDE, GROUP, LINK_ONCE_DISCARD
  1 .group        00000008  00000000  00000000  0000003c  2**2
                  CONTENTS, READONLY, EXCLUDE, GROUP, LINK_ONCE_DISCARD
  2 .group        00000008  00000000  00000000  00000044  2**2
                  CONTENTS, READONLY, EXCLUDE, GROUP, LINK_ONCE_DISCARD
  3 .text         00000000  00000000  00000000  0000004c  2**0
                  CONTENTS, ALLOC, LOAD, READONLY, CODE
  4 .data         00000000  00000000  00000000  0000004c  2**0
                  CONTENTS, ALLOC, LOAD, DATA
  5 .bss          00000000  00000000  00000000  0000004c  2**0
                  ALLOC
  6 .text._ZN22LedMatrixMAX7219Driver6getLedEhh 00000020  00000000  00000000  0000004c  2**0
                  CONTENTS, ALLOC, LOAD, RELOC, READONLY, CODE
  7 .text._ZN22LedMatrixMAX7219Driver10switchLedsEhhhh 00000076  00000000  00000000  0000006c  2**0
                  CONTENTS, ALLOC, LOAD, READONLY, CODE
  8 .text._ZN22LedMatrixMAX7219Driver10switchColsEhh 00000002  00000000  00000000  000000e2  2**0
                  CONTENTS, ALLOC, LOAD, READONLY, CODE
  9 .text._ZN22LedMatrixMAX7219Driver10switchRowsEhh 00000002  00000000  00000000  000000e4  2**0
                  CONTENTS, ALLOC, LOAD, READONLY, CODE
 10 .text._ZN22LedMatrixMAX7219Driver9invertLedEhh 00000002  00000000  00000000  000000e6  2**0
                  CONTENTS, ALLOC, LOAD, READONLY, CODE
 11 .text._ZN22LedMatrixMAX7219Driver10invertColsEh 00000002  00000000  00000000  000000e8  2**0
                  CONTENTS, ALLOC, LOAD, READONLY, CODE
 12 .text._ZN22LedMatrixMAX7219Driver10invertRowsEh 00000002  00000000  00000000  000000ea  2**0
                  CONTENTS, ALLOC, LOAD, READONLY, CODE
 13 .text._ZN22LedMatrixMAX7219DriverD2Ev 0000000e  00000000  00000000  000000ec  2**0
                  CONTENTS, ALLOC, LOAD, RELOC, READONLY, CODE
 14 .text._ZN22LedMatrixMAX7219DriverD0Ev 00000014  00000000  00000000  000000fa  2**0
                  CONTENTS, ALLOC, LOAD, RELOC, READONLY, CODE
 15 .text._ZN22LedMatrixMAX7219Driver5clearEv 0000000c  00000000  00000000  0000010e  2**0
                  CONTENTS, ALLOC, LOAD, RELOC, READONLY, CODE
 16 .text._ZN22LedMatrixMAX7219Driver4fillEv 0000000c  00000000  00000000  0000011a  2**0
                  CONTENTS, ALLOC, LOAD, RELOC, READONLY, CODE
 17 .text._ZN22LedMatrixMAX7219Driver6setRowEhh 00000050  00000000  00000000  00000126  2**0
                  CONTENTS, ALLOC, LOAD, RELOC, READONLY, CODE
 18 .text._ZN22LedMatrixMAX7219Driver8shiftLedEhhh 000000b2  00000000  00000000  00000176  2**0
                  CONTENTS, ALLOC, LOAD, RELOC, READONLY, CODE
 19 .text._ZN22LedMatrixMAX7219Driver8shiftRowEhh 00000050  00000000  00000000  00000228  2**0
                  CONTENTS, ALLOC, LOAD, RELOC, READONLY, CODE
 20 .text._ZN22LedMatrixMAX7219Driver6setLedEhhh 0000008a  00000000  00000000  00000278  2**0
                  CONTENTS, ALLOC, LOAD, RELOC, READONLY, CODE
 21 .text._ZN22LedMatrixMAX7219Driver6setColEhh 00000050  00000000  00000000  00000302  2**0
                  CONTENTS, ALLOC, LOAD, RELOC, READONLY, CODE
 22 .text._ZN22LedMatrixMAX7219Driver8shiftColEhh 00000086  00000000  00000000  00000352  2**0
                  CONTENTS, ALLOC, LOAD, RELOC, READONLY, CODE
 23 .text._ZN22LedMatrixMAX7219DriverC2EP13MAX7219Driverhh 00000070  00000000  00000000  000003d8  2**0
                  CONTENTS, ALLOC, LOAD, RELOC, READONLY, CODE
 24 .rodata._ZTV22LedMatrixMAX7219Driver 00000028  00000000  00000000  00000448  2**0
                  CONTENTS, ALLOC, LOAD, RELOC, READONLY, DATA
 25 .data._ZN22LedMatrixMAX7219Driver11registerMapE 00000008  00000000  00000000  00000470  2**0
                  CONTENTS, ALLOC, LOAD, DATA
 26 .comment      00000012  00000000  00000000  00000478  2**0
                  CONTENTS, READONLY

Disassembly of section .text._ZN22LedMatrixMAX7219Driver6getLedEhh:

00000000 <_ZN22LedMatrixMAX7219Driver6getLedEhh>:
   0:	86 0f       	add	r24, r22
   2:	91 1d       	adc	r25, r1
   4:	21 e0       	ldi	r18, 0x01	; 1
   6:	30 e0       	ldi	r19, 0x00	; 0
   8:	04 2e       	mov	r0, r20
   a:	00 c0       	rjmp	.+0      	; 0xc <_ZN22LedMatrixMAX7219Driver6getLedEhh+0xc>
   c:	22 0f       	add	r18, r18
   e:	0a 94       	dec	r0
  10:	02 f4       	brpl	.+0      	; 0x12 <_ZN22LedMatrixMAX7219Driver6getLedEhh+0x12>
  12:	fc 01       	movw	r30, r24
  14:	96 81       	ldd	r25, Z+6	; 0x06
  16:	92 23       	and	r25, r18
  18:	81 e0       	ldi	r24, 0x01	; 1
  1a:	01 f4       	brne	.+0      	; 0x1c <_ZN22LedMatrixMAX7219Driver6getLedEhh+0x1c>
  1c:	80 e0       	ldi	r24, 0x00	; 0
  1e:	08 95       	ret

Disassembly of section .text._ZN22LedMatrixMAX7219Driver10switchLedsEhhhh:

00000020 <_ZN22LedMatrixMAX7219Driver10switchLedsEhhhh>:
  20:	bf 92       	push	r11
  22:	cf 92       	push	r12
  24:	df 92       	push	r13
  26:	ef 92       	push	r14
  28:	ff 92       	push	r15
  2a:	0f 93       	push	r16
  2c:	1f 93       	push	r17
  2e:	cf 93       	push	r28
  30:	df 93       	push	r29
  32:	ec 01       	movw	r28, r24
  34:	d6 2e       	mov	r13, r22
  36:	c4 2e       	mov	r12, r20
  38:	12 2f       	mov	r17, r18
  3a:	e8 81       	ld	r30, Y
  3c:	f9 81       	ldd	r31, Y+1	; 0x01
  3e:	02 84       	ldd	r0, Z+10	; 0x0a
  40:	f3 85       	ldd	r31, Z+11	; 0x0b
  42:	e0 2d       	mov	r30, r0
  44:	09 95       	icall
  46:	b8 2e       	mov	r11, r24
  48:	a8 81       	ld	r26, Y
  4a:	b9 81       	ldd	r27, Y+1	; 0x01
  4c:	1c 96       	adiw	r26, 0x0c	; 12
  4e:	ed 90       	ld	r14, X+
  50:	fc 90       	ld	r15, X
  52:	1d 97       	sbiw	r26, 0x0d	; 13
  54:	1a 96       	adiw	r26, 0x0a	; 10
  56:	ed 91       	ld	r30, X+
  58:	fc 91       	ld	r31, X
  5a:	1b 97       	sbiw	r26, 0x0b	; 11
  5c:	40 2f       	mov	r20, r16
  5e:	61 2f       	mov	r22, r17
  60:	ce 01       	movw	r24, r28
  62:	09 95       	icall
  64:	28 2f       	mov	r18, r24
  66:	4c 2d       	mov	r20, r12
  68:	6d 2d       	mov	r22, r13
  6a:	ce 01       	movw	r24, r28
  6c:	f7 01       	movw	r30, r14
  6e:	09 95       	icall
  70:	e8 81       	ld	r30, Y
  72:	f9 81       	ldd	r31, Y+1	; 0x01
  74:	04 84       	ldd	r0, Z+12	; 0x0c
  76:	f5 85       	ldd	r31, Z+13	; 0x0d
  78:	e0 2d       	mov	r30, r0
  7a:	2b 2d       	mov	r18, r11
  7c:	40 2f       	mov	r20, r16
  7e:	61 2f       	mov	r22, r17
  80:	ce 01       	movw	r24, r28
  82:	df 91       	pop	r29
  84:	cf 91       	pop	r28
  86:	1f 91       	pop	r17
  88:	0f 91       	pop	r16
  8a:	ff 90       	pop	r15
  8c:	ef 90       	pop	r14
  8e:	df 90       	pop	r13
  90:	cf 90       	pop	r12
  92:	bf 90       	pop	r11
  94:	09 94       	ijmp

Disassembly of section .text._ZN22LedMatrixMAX7219Driver10switchColsEhh:

000000b6 <_ZN22LedMatrixMAX7219Driver10switchColsEhh>:
  b6:	08 95       	ret

Disassembly of section .text._ZN22LedMatrixMAX7219Driver10switchRowsEhh:

0000016e <_ZN22LedMatrixMAX7219Driver10switchRowsEhh>:
 16e:	08 95       	ret

Disassembly of section .text._ZN22LedMatrixMAX7219Driver9invertLedEhh:

000002de <_ZN22LedMatrixMAX7219Driver9invertLedEhh>:
 2de:	08 95       	ret

Disassembly of section .text._ZN22LedMatrixMAX7219Driver10invertColsEh:

000005be <_ZN22LedMatrixMAX7219Driver10invertColsEh>:
 5be:	08 95       	ret

Disassembly of section .text._ZN22LedMatrixMAX7219Driver10invertRowsEh:

00000b7e <_ZN22LedMatrixMAX7219Driver10invertRowsEh>:
 b7e:	08 95       	ret

Disassembly of section .text._ZN22LedMatrixMAX7219DriverD2Ev:

000016fe <_ZN22LedMatrixMAX7219DriverD1Ev>:
    16fe:	20 e0       	ldi	r18, 0x00	; 0
    1700:	30 e0       	ldi	r19, 0x00	; 0
    1702:	fc 01       	movw	r30, r24
    1704:	31 83       	std	Z+1, r19	; 0x01
    1706:	20 83       	st	Z, r18
    1708:	0c 94 00 00 	jmp	0	; 0x0 <__tmp_reg__>

Disassembly of section .text._ZN22LedMatrixMAX7219DriverD0Ev:

00002e0a <_ZN22LedMatrixMAX7219DriverD0Ev>:
    2e0a:	cf 93       	push	r28
    2e0c:	df 93       	push	r29
    2e0e:	ec 01       	movw	r28, r24
    2e10:	0e 94 00 00 	call	0	; 0x0 <__tmp_reg__>
    2e14:	ce 01       	movw	r24, r28
    2e16:	df 91       	pop	r29
    2e18:	cf 91       	pop	r28
    2e1a:	0c 94 00 00 	jmp	0	; 0x0 <__tmp_reg__>

Disassembly of section .text._ZN22LedMatrixMAX7219Driver5clearEv:

00005c28 <_ZN22LedMatrixMAX7219Driver5clearEv>:
    5c28:	60 e0       	ldi	r22, 0x00	; 0
    5c2a:	fc 01       	movw	r30, r24
    5c2c:	84 81       	ldd	r24, Z+4	; 0x04
    5c2e:	95 81       	ldd	r25, Z+5	; 0x05
    5c30:	0c 94 00 00 	jmp	0	; 0x0 <__tmp_reg__>

Disassembly of section .text._ZN22LedMatrixMAX7219Driver4fillEv:

0000b85c <_ZN22LedMatrixMAX7219Driver4fillEv>:
    b85c:	6f ef       	ldi	r22, 0xFF	; 255
    b85e:	fc 01       	movw	r30, r24
    b860:	84 81       	ldd	r24, Z+4	; 0x04
    b862:	95 81       	ldd	r25, Z+5	; 0x05
    b864:	0c 94 00 00 	jmp	0	; 0x0 <__tmp_reg__>

Disassembly of section .text._ZN22LedMatrixMAX7219Driver6setRowEhh:

000170c4 <_ZN22LedMatrixMAX7219Driver6setRowEhh>:
   170c4:	ff 92       	push	r15
   170c6:	0f 93       	push	r16
   170c8:	1f 93       	push	r17
   170ca:	cf 93       	push	r28
   170cc:	df 93       	push	r29
   170ce:	ec 01       	movw	r28, r24
   170d0:	06 2f       	mov	r16, r22
   170d2:	f4 2e       	mov	r15, r20
   170d4:	e8 81       	ld	r30, Y
   170d6:	f9 81       	ldd	r31, Y+1	; 0x01
   170d8:	04 80       	ldd	r0, Z+4	; 0x04
   170da:	f5 81       	ldd	r31, Z+5	; 0x05
   170dc:	e0 2d       	mov	r30, r0
   170de:	46 2f       	mov	r20, r22
   170e0:	60 e0       	ldi	r22, 0x00	; 0
   170e2:	09 95       	icall
   170e4:	81 11       	cpse	r24, r1
   170e6:	00 c0       	rjmp	.+0      	; 0x170e8 <_ZN22LedMatrixMAX7219Driver6setRowEhh+0x24>
   170e8:	10 e0       	ldi	r17, 0x00	; 0
   170ea:	8b 81       	ldd	r24, Y+3	; 0x03
   170ec:	18 17       	cp	r17, r24
   170ee:	00 f4       	brcc	.+0      	; 0x170f0 <_ZN22LedMatrixMAX7219Driver6setRowEhh+0x2c>
   170f0:	e8 81       	ld	r30, Y
   170f2:	f9 81       	ldd	r31, Y+1	; 0x01
   170f4:	04 84       	ldd	r0, Z+12	; 0x0c
   170f6:	f5 85       	ldd	r31, Z+13	; 0x0d
   170f8:	e0 2d       	mov	r30, r0
   170fa:	2f 2d       	mov	r18, r15
   170fc:	41 2f       	mov	r20, r17
   170fe:	60 2f       	mov	r22, r16
   17100:	ce 01       	movw	r24, r28
   17102:	09 95       	icall
   17104:	1f 5f       	subi	r17, 0xFF	; 255
   17106:	00 c0       	rjmp	.+0      	; 0x17108 <_ZN22LedMatrixMAX7219Driver6setRowEhh+0x44>
   17108:	df 91       	pop	r29
   1710a:	cf 91       	pop	r28
   1710c:	1f 91       	pop	r17
   1710e:	0f 91       	pop	r16
   17110:	ff 90       	pop	r15
   17112:	08 95       	ret

Disassembly of section .text._ZN22LedMatrixMAX7219Driver8shiftLedEhhh:

0002e1d8 <_ZN22LedMatrixMAX7219Driver8shiftLedEhhh>:
   2e1d8:	ef 92       	push	r14
   2e1da:	ff 92       	push	r15
   2e1dc:	0f 93       	push	r16
   2e1de:	1f 93       	push	r17
   2e1e0:	cf 93       	push	r28
   2e1e2:	df 93       	push	r29
   2e1e4:	ec 01       	movw	r28, r24
   2e1e6:	16 2f       	mov	r17, r22
   2e1e8:	04 2f       	mov	r16, r20
   2e1ea:	f2 2e       	mov	r15, r18
   2e1ec:	e8 81       	ld	r30, Y
   2e1ee:	f9 81       	ldd	r31, Y+1	; 0x01
   2e1f0:	04 80       	ldd	r0, Z+4	; 0x04
   2e1f2:	f5 81       	ldd	r31, Z+5	; 0x05
   2e1f4:	e0 2d       	mov	r30, r0
   2e1f6:	09 95       	icall
   2e1f8:	81 11       	cpse	r24, r1
   2e1fa:	00 c0       	rjmp	.+0      	; 0x2e1fc <_ZN22LedMatrixMAX7219Driver8shiftLedEhhh+0x24>
   2e1fc:	e8 81       	ld	r30, Y
   2e1fe:	f9 81       	ldd	r31, Y+1	; 0x01
   2e200:	02 84       	ldd	r0, Z+10	; 0x0a
   2e202:	f3 85       	ldd	r31, Z+11	; 0x0b
   2e204:	e0 2d       	mov	r30, r0
   2e206:	40 2f       	mov	r20, r16
   2e208:	61 2f       	mov	r22, r17
   2e20a:	ce 01       	movw	r24, r28
   2e20c:	09 95       	icall
   2e20e:	e8 2e       	mov	r14, r24
   2e210:	e8 81       	ld	r30, Y
   2e212:	f9 81       	ldd	r31, Y+1	; 0x01
   2e214:	21 e0       	ldi	r18, 0x01	; 1
   2e216:	81 11       	cpse	r24, r1
   2e218:	20 e0       	ldi	r18, 0x00	; 0
   2e21a:	04 84       	ldd	r0, Z+12	; 0x0c
   2e21c:	f5 85       	ldd	r31, Z+13	; 0x0d
   2e21e:	e0 2d       	mov	r30, r0
   2e220:	40 2f       	mov	r20, r16
   2e222:	61 2f       	mov	r22, r17
   2e224:	ce 01       	movw	r24, r28
   2e226:	09 95       	icall
   2e228:	f1 10       	cpse	r15, r1
   2e22a:	00 c0       	rjmp	.+0      	; 0x2e22c <_ZN22LedMatrixMAX7219Driver8shiftLedEhhh+0x54>
   2e22c:	11 50       	subi	r17, 0x01	; 1
   2e22e:	00 c0       	rjmp	.+0      	; 0x2e230 <_ZN22LedMatrixMAX7219Driver8shiftLedEhhh+0x58>
   2e230:	81 e0       	ldi	r24, 0x01	; 1
   2e232:	f8 12       	cpse	r15, r24
   2e234:	00 c0       	rjmp	.+0      	; 0x2e236 <_ZN22LedMatrixMAX7219Driver8shiftLedEhhh+0x5e>
   2e236:	1f 5f       	subi	r17, 0xFF	; 255
   2e238:	00 c0       	rjmp	.+0      	; 0x2e23a <_ZN22LedMatrixMAX7219Driver8shiftLedEhhh+0x62>
   2e23a:	82 e0       	ldi	r24, 0x02	; 2
   2e23c:	f8 12       	cpse	r15, r24
   2e23e:	00 c0       	rjmp	.+0      	; 0x2e240 <_ZN22LedMatrixMAX7219Driver8shiftLedEhhh+0x68>
   2e240:	0f 5f       	subi	r16, 0xFF	; 255
   2e242:	00 c0       	rjmp	.+0      	; 0x2e244 <_ZN22LedMatrixMAX7219Driver8shiftLedEhhh+0x6c>
   2e244:	01 50       	subi	r16, 0x01	; 1
   2e246:	e8 81       	ld	r30, Y
   2e248:	f9 81       	ldd	r31, Y+1	; 0x01
   2e24a:	21 e0       	ldi	r18, 0x01	; 1
   2e24c:	e1 10       	cpse	r14, r1
   2e24e:	00 c0       	rjmp	.+0      	; 0x2e250 <_ZN22LedMatrixMAX7219Driver8shiftLedEhhh+0x78>
   2e250:	20 e0       	ldi	r18, 0x00	; 0
   2e252:	6b 81       	ldd	r22, Y+3	; 0x03
   2e254:	80 2f       	mov	r24, r16
   2e256:	0e 94 00 00 	call	0	; 0x0 <__tmp_reg__>
   2e25a:	49 2f       	mov	r20, r25
   2e25c:	6a 81       	ldd	r22, Y+2	; 0x02
   2e25e:	81 2f       	mov	r24, r17
   2e260:	0e 94 00 00 	call	0	; 0x0 <__tmp_reg__>
   2e264:	04 84       	ldd	r0, Z+12	; 0x0c
   2e266:	f5 85       	ldd	r31, Z+13	; 0x0d
   2e268:	e0 2d       	mov	r30, r0
   2e26a:	69 2f       	mov	r22, r25
   2e26c:	ce 01       	movw	r24, r28
   2e26e:	df 91       	pop	r29
   2e270:	cf 91       	pop	r28
   2e272:	1f 91       	pop	r17
   2e274:	0f 91       	pop	r16
   2e276:	ff 90       	pop	r15
   2e278:	ef 90       	pop	r14
   2e27a:	09 94       	ijmp
   2e27c:	df 91       	pop	r29
   2e27e:	cf 91       	pop	r28
   2e280:	1f 91       	pop	r17
   2e282:	0f 91       	pop	r16
   2e284:	ff 90       	pop	r15
   2e286:	ef 90       	pop	r14
   2e288:	08 95       	ret

Disassembly of section .text._ZN22LedMatrixMAX7219Driver8shiftRowEhh:

0005c462 <_ZN22LedMatrixMAX7219Driver8shiftRowEhh>:
   5c462:	ff 92       	push	r15
   5c464:	0f 93       	push	r16
   5c466:	1f 93       	push	r17
   5c468:	cf 93       	push	r28
   5c46a:	df 93       	push	r29
   5c46c:	ec 01       	movw	r28, r24
   5c46e:	06 2f       	mov	r16, r22
   5c470:	f4 2e       	mov	r15, r20
   5c472:	e8 81       	ld	r30, Y
   5c474:	f9 81       	ldd	r31, Y+1	; 0x01
   5c476:	04 80       	ldd	r0, Z+4	; 0x04
   5c478:	f5 81       	ldd	r31, Z+5	; 0x05
   5c47a:	e0 2d       	mov	r30, r0
   5c47c:	46 2f       	mov	r20, r22
   5c47e:	60 e0       	ldi	r22, 0x00	; 0
   5c480:	09 95       	icall
   5c482:	81 11       	cpse	r24, r1
   5c484:	00 c0       	rjmp	.+0      	; 0x5c486 <_ZN22LedMatrixMAX7219Driver8shiftRowEhh+0x24>
   5c486:	10 e0       	ldi	r17, 0x00	; 0
   5c488:	8a 81       	ldd	r24, Y+2	; 0x02
   5c48a:	18 17       	cp	r17, r24
   5c48c:	00 f4       	brcc	.+0      	; 0x5c48e <_ZN22LedMatrixMAX7219Driver8shiftRowEhh+0x2c>
   5c48e:	e8 81       	ld	r30, Y
   5c490:	f9 81       	ldd	r31, Y+1	; 0x01
   5c492:	02 88       	ldd	r0, Z+18	; 0x12
   5c494:	f3 89       	ldd	r31, Z+19	; 0x13
   5c496:	e0 2d       	mov	r30, r0
   5c498:	2f 2d       	mov	r18, r15
   5c49a:	40 2f       	mov	r20, r16
   5c49c:	61 2f       	mov	r22, r17
   5c49e:	ce 01       	movw	r24, r28
   5c4a0:	09 95       	icall
   5c4a2:	1f 5f       	subi	r17, 0xFF	; 255
   5c4a4:	00 c0       	rjmp	.+0      	; 0x5c4a6 <_ZN22LedMatrixMAX7219Driver8shiftRowEhh+0x44>
   5c4a6:	df 91       	pop	r29
   5c4a8:	cf 91       	pop	r28
   5c4aa:	1f 91       	pop	r17
   5c4ac:	0f 91       	pop	r16
   5c4ae:	ff 90       	pop	r15
   5c4b0:	08 95       	ret

Disassembly of section .text._ZN22LedMatrixMAX7219Driver6setLedEhhh:

000b8914 <_ZN22LedMatrixMAX7219Driver6setLedEhhh>:
   b8914:	ef 92       	push	r14
   b8916:	ff 92       	push	r15
   b8918:	0f 93       	push	r16
   b891a:	1f 93       	push	r17
   b891c:	cf 93       	push	r28
   b891e:	df 93       	push	r29
   b8920:	1f 92       	push	r1
   b8922:	cd b7       	in	r28, 0x3d	; 61
   b8924:	de b7       	in	r29, 0x3e	; 62
   b8926:	7c 01       	movw	r14, r24
   b8928:	06 2f       	mov	r16, r22
   b892a:	14 2f       	mov	r17, r20
   b892c:	dc 01       	movw	r26, r24
   b892e:	ed 91       	ld	r30, X+
   b8930:	fc 91       	ld	r31, X
   b8932:	04 80       	ldd	r0, Z+4	; 0x04
   b8934:	f5 81       	ldd	r31, Z+5	; 0x05
   b8936:	e0 2d       	mov	r30, r0
   b8938:	29 83       	std	Y+1, r18	; 0x01
   b893a:	09 95       	icall
   b893c:	29 81       	ldd	r18, Y+1	; 0x01
   b893e:	81 11       	cpse	r24, r1
   b8940:	00 c0       	rjmp	.+0      	; 0xb8942 <_ZN22LedMatrixMAX7219Driver6setLedEhhh+0x2e>
   b8942:	60 2f       	mov	r22, r16
   b8944:	70 e0       	ldi	r23, 0x00	; 0
   b8946:	f7 01       	movw	r30, r14
   b8948:	e6 0f       	add	r30, r22
   b894a:	f7 1f       	adc	r31, r23
   b894c:	36 81       	ldd	r19, Z+6	; 0x06
   b894e:	81 e0       	ldi	r24, 0x01	; 1
   b8950:	90 e0       	ldi	r25, 0x00	; 0
   b8952:	01 2e       	mov	r0, r17
   b8954:	00 c0       	rjmp	.+0      	; 0xb8956 <_ZN22LedMatrixMAX7219Driver6setLedEhhh+0x42>
   b8956:	88 0f       	add	r24, r24
   b8958:	0a 94       	dec	r0
   b895a:	02 f4       	brpl	.+0      	; 0xb895c <_ZN22LedMatrixMAX7219Driver6setLedEhhh+0x48>
   b895c:	22 23       	and	r18, r18
   b895e:	01 f0       	breq	.+0      	; 0xb8960 <_ZN22LedMatrixMAX7219Driver6setLedEhhh+0x4c>
   b8960:	43 2f       	mov	r20, r19
   b8962:	48 2b       	or	r20, r24
   b8964:	00 c0       	rjmp	.+0      	; 0xb8966 <_ZN22LedMatrixMAX7219Driver6setLedEhhh+0x52>
   b8966:	48 2f       	mov	r20, r24
   b8968:	40 95       	com	r20
   b896a:	43 23       	and	r20, r19
   b896c:	46 83       	std	Z+6, r20	; 0x06
   b896e:	fb 01       	movw	r30, r22
   b8970:	e0 50       	subi	r30, 0x00	; 0
   b8972:	f0 40       	sbci	r31, 0x00	; 0
   b8974:	60 81       	ld	r22, Z
   b8976:	f7 01       	movw	r30, r14
   b8978:	84 81       	ldd	r24, Z+4	; 0x04
   b897a:	95 81       	ldd	r25, Z+5	; 0x05
   b897c:	0f 90       	pop	r0
   b897e:	df 91       	pop	r29
   b8980:	cf 91       	pop	r28
   b8982:	1f 91       	pop	r17
   b8984:	0f 91       	pop	r16
   b8986:	ff 90       	pop	r15
   b8988:	ef 90       	pop	r14
   b898a:	0c 94 00 00 	jmp	0	; 0x0 <__tmp_reg__>
   b898e:	0f 90       	pop	r0
   b8990:	df 91       	pop	r29
   b8992:	cf 91       	pop	r28
   b8994:	1f 91       	pop	r17
   b8996:	0f 91       	pop	r16
   b8998:	ff 90       	pop	r15
   b899a:	ef 90       	pop	r14
   b899c:	08 95       	ret

Disassembly of section .text._ZN22LedMatrixMAX7219Driver6setColEhh:

001712b2 <_ZN22LedMatrixMAX7219Driver6setColEhh>:
  1712b2:	0f 93       	push	r16
  1712b4:	1f 93       	push	r17
  1712b6:	cf 93       	push	r28
  1712b8:	df 93       	push	r29
  1712ba:	ec 01       	movw	r28, r24
  1712bc:	06 2f       	mov	r16, r22
  1712be:	14 2f       	mov	r17, r20
  1712c0:	e8 81       	ld	r30, Y
  1712c2:	f9 81       	ldd	r31, Y+1	; 0x01
  1712c4:	04 80       	ldd	r0, Z+4	; 0x04
  1712c6:	f5 81       	ldd	r31, Z+5	; 0x05
  1712c8:	e0 2d       	mov	r30, r0
  1712ca:	40 e0       	ldi	r20, 0x00	; 0
  1712cc:	09 95       	icall
  1712ce:	81 11       	cpse	r24, r1
  1712d0:	00 c0       	rjmp	.+0      	; 0x1712d2 <_ZN22LedMatrixMAX7219Driver6setColEhh+0x20>
  1712d2:	60 2f       	mov	r22, r16
  1712d4:	70 e0       	ldi	r23, 0x00	; 0
  1712d6:	fe 01       	movw	r30, r28
  1712d8:	e6 0f       	add	r30, r22
  1712da:	f7 1f       	adc	r31, r23
  1712dc:	16 83       	std	Z+6, r17	; 0x06
  1712de:	fb 01       	movw	r30, r22
  1712e0:	e0 50       	subi	r30, 0x00	; 0
  1712e2:	f0 40       	sbci	r31, 0x00	; 0
  1712e4:	41 2f       	mov	r20, r17
  1712e6:	60 81       	ld	r22, Z
  1712e8:	8c 81       	ldd	r24, Y+4	; 0x04
  1712ea:	9d 81       	ldd	r25, Y+5	; 0x05
  1712ec:	df 91       	pop	r29
  1712ee:	cf 91       	pop	r28
  1712f0:	1f 91       	pop	r17
  1712f2:	0f 91       	pop	r16
  1712f4:	0c 94 00 00 	jmp	0	; 0x0 <__tmp_reg__>
  1712f8:	df 91       	pop	r29
  1712fa:	cf 91       	pop	r28
  1712fc:	1f 91       	pop	r17
  1712fe:	0f 91       	pop	r16
  171300:	08 95       	ret

Disassembly of section .text._ZN22LedMatrixMAX7219Driver8shiftColEhh:

002e25b4 <_ZN22LedMatrixMAX7219Driver8shiftColEhh>:
  2e25b4:	ff 92       	push	r15
  2e25b6:	0f 93       	push	r16
  2e25b8:	1f 93       	push	r17
  2e25ba:	cf 93       	push	r28
  2e25bc:	df 93       	push	r29
  2e25be:	ec 01       	movw	r28, r24
  2e25c0:	16 2f       	mov	r17, r22
  2e25c2:	f4 2e       	mov	r15, r20
  2e25c4:	e8 81       	ld	r30, Y
  2e25c6:	f9 81       	ldd	r31, Y+1	; 0x01
  2e25c8:	04 80       	ldd	r0, Z+4	; 0x04
  2e25ca:	f5 81       	ldd	r31, Z+5	; 0x05
  2e25cc:	e0 2d       	mov	r30, r0
  2e25ce:	40 e0       	ldi	r20, 0x00	; 0
  2e25d0:	09 95       	icall
  2e25d2:	81 11       	cpse	r24, r1
  2e25d4:	00 c0       	rjmp	.+0      	; 0x2e25d6 <_ZN22LedMatrixMAX7219Driver8shiftColEhh+0x22>
  2e25d6:	21 2f       	mov	r18, r17
  2e25d8:	30 e0       	ldi	r19, 0x00	; 0
  2e25da:	fe 01       	movw	r30, r28
  2e25dc:	e2 0f       	add	r30, r18
  2e25de:	f3 1f       	adc	r31, r19
  2e25e0:	06 81       	ldd	r16, Z+6	; 0x06
  2e25e2:	40 2f       	mov	r20, r16
  2e25e4:	40 95       	com	r20
  2e25e6:	46 83       	std	Z+6, r20	; 0x06
  2e25e8:	f9 01       	movw	r30, r18
  2e25ea:	e0 50       	subi	r30, 0x00	; 0
  2e25ec:	f0 40       	sbci	r31, 0x00	; 0
  2e25ee:	60 81       	ld	r22, Z
  2e25f0:	8c 81       	ldd	r24, Y+4	; 0x04
  2e25f2:	9d 81       	ldd	r25, Y+5	; 0x05
  2e25f4:	0e 94 00 00 	call	0	; 0x0 <__tmp_reg__>
  2e25f8:	81 e0       	ldi	r24, 0x01	; 1
  2e25fa:	f8 12       	cpse	r15, r24
  2e25fc:	8f ef       	ldi	r24, 0xFF	; 255
  2e25fe:	81 0f       	add	r24, r17
  2e2600:	6a 81       	ldd	r22, Y+2	; 0x02
  2e2602:	0e 94 00 00 	call	0	; 0x0 <__tmp_reg__>
  2e2606:	89 2f       	mov	r24, r25
  2e2608:	90 e0       	ldi	r25, 0x00	; 0
  2e260a:	fe 01       	movw	r30, r28
  2e260c:	e8 0f       	add	r30, r24
  2e260e:	f9 1f       	adc	r31, r25
  2e2610:	06 83       	std	Z+6, r16	; 0x06
  2e2612:	fc 01       	movw	r30, r24
  2e2614:	e0 50       	subi	r30, 0x00	; 0
  2e2616:	f0 40       	sbci	r31, 0x00	; 0
  2e2618:	40 2f       	mov	r20, r16
  2e261a:	60 81       	ld	r22, Z
  2e261c:	8c 81       	ldd	r24, Y+4	; 0x04
  2e261e:	9d 81       	ldd	r25, Y+5	; 0x05
  2e2620:	df 91       	pop	r29
  2e2622:	cf 91       	pop	r28
  2e2624:	1f 91       	pop	r17
  2e2626:	0f 91       	pop	r16
  2e2628:	ff 90       	pop	r15
  2e262a:	0c 94 00 00 	jmp	0	; 0x0 <__tmp_reg__>
  2e262e:	df 91       	pop	r29
  2e2630:	cf 91       	pop	r28
  2e2632:	1f 91       	pop	r17
  2e2634:	0f 91       	pop	r16
  2e2636:	ff 90       	pop	r15
  2e2638:	08 95       	ret

Disassembly of section .text._ZN22LedMatrixMAX7219DriverC2EP13MAX7219Driverhh:

005c4bee <_ZN22LedMatrixMAX7219DriverC1EP13MAX7219Driverhh>:
  5c4bee:	0f 93       	push	r16
  5c4bf0:	1f 93       	push	r17
  5c4bf2:	cf 93       	push	r28
  5c4bf4:	df 93       	push	r29
  5c4bf6:	8c 01       	movw	r16, r24
  5c4bf8:	eb 01       	movw	r28, r22
  5c4bfa:	64 2f       	mov	r22, r20
  5c4bfc:	42 2f       	mov	r20, r18
  5c4bfe:	0e 94 00 00 	call	0	; 0x0 <__tmp_reg__>
  5c4c02:	80 e0       	ldi	r24, 0x00	; 0
  5c4c04:	90 e0       	ldi	r25, 0x00	; 0
  5c4c06:	f8 01       	movw	r30, r16
  5c4c08:	91 83       	std	Z+1, r25	; 0x01
  5c4c0a:	80 83       	st	Z, r24
  5c4c0c:	d5 83       	std	Z+5, r29	; 0x05
  5c4c0e:	c4 83       	std	Z+4, r28	; 0x04
  5c4c10:	60 e0       	ldi	r22, 0x00	; 0
  5c4c12:	ce 01       	movw	r24, r28
  5c4c14:	0e 94 00 00 	call	0	; 0x0 <__tmp_reg__>
  5c4c18:	67 e0       	ldi	r22, 0x07	; 7
  5c4c1a:	ce 01       	movw	r24, r28
  5c4c1c:	0e 94 00 00 	call	0	; 0x0 <__tmp_reg__>
  5c4c20:	6f ef       	ldi	r22, 0xFF	; 255
  5c4c22:	ce 01       	movw	r24, r28
  5c4c24:	0e 94 00 00 	call	0	; 0x0 <__tmp_reg__>
  5c4c28:	60 e0       	ldi	r22, 0x00	; 0
  5c4c2a:	ce 01       	movw	r24, r28
  5c4c2c:	0e 94 00 00 	call	0	; 0x0 <__tmp_reg__>
  5c4c30:	61 e0       	ldi	r22, 0x01	; 1
  5c4c32:	ce 01       	movw	r24, r28
  5c4c34:	0e 94 00 00 	call	0	; 0x0 <__tmp_reg__>
  5c4c38:	60 e0       	ldi	r22, 0x00	; 0
  5c4c3a:	ce 01       	movw	r24, r28
  5c4c3c:	0e 94 00 00 	call	0	; 0x0 <__tmp_reg__>
  5c4c40:	80 e0       	ldi	r24, 0x00	; 0
  5c4c42:	90 e0       	ldi	r25, 0x00	; 0
  5c4c44:	f8 01       	movw	r30, r16
  5c4c46:	e8 0f       	add	r30, r24
  5c4c48:	f9 1f       	adc	r31, r25
  5c4c4a:	16 82       	std	Z+6, r1	; 0x06
  5c4c4c:	01 96       	adiw	r24, 0x01	; 1
  5c4c4e:	88 30       	cpi	r24, 0x08	; 8
  5c4c50:	91 05       	cpc	r25, r1
  5c4c52:	01 f4       	brne	.+0      	; 0x5c4c54 <_ZN22LedMatrixMAX7219DriverC1EP13MAX7219Driverhh+0x66>
  5c4c54:	df 91       	pop	r29
  5c4c56:	cf 91       	pop	r28
  5c4c58:	1f 91       	pop	r17
  5c4c5a:	0f 91       	pop	r16
  5c4c5c:	08 95       	ret

LedMatrixDriver.o:     file format elf32-avr

Sections:
Idx Name          Size      VMA       LMA       File off  Algn
  0 .group        00000008  00000000  00000000  00000034  2**2
                  CONTENTS, READONLY, EXCLUDE, GROUP, LINK_ONCE_DISCARD
  1 .text         00000000  00000000  00000000  0000003c  2**0
                  CONTENTS, ALLOC, LOAD, READONLY, CODE
  2 .data         00000000  00000000  00000000  0000003c  2**0
                  CONTENTS, ALLOC, LOAD, DATA
  3 .bss          00000000  00000000  00000000  0000003c  2**0
                  ALLOC
  4 .text._ZN15LedMatrixDriverD2Ev 0000000c  00000000  00000000  0000003c  2**0
                  CONTENTS, ALLOC, LOAD, RELOC, READONLY, CODE
  5 .text._ZN15LedMatrixDriver13isOutOfBoundsEhh 00000018  00000000  00000000  00000048  2**0
                  CONTENTS, ALLOC, LOAD, RELOC, READONLY, CODE
  6 .text._ZN15LedMatrixDriverD0Ev 0000000e  00000000  00000000  00000060  2**0
                  CONTENTS, ALLOC, LOAD, RELOC, READONLY, CODE
  7 .text._ZN15LedMatrixDriverC2Ehh 00000010  00000000  00000000  0000006e  2**0
                  CONTENTS, ALLOC, LOAD, RELOC, READONLY, CODE
  8 .rodata._ZTV15LedMatrixDriver 00000028  00000000  00000000  0000007e  2**0
                  CONTENTS, ALLOC, LOAD, RELOC, READONLY, DATA
  9 .comment      00000012  00000000  00000000  000000a6  2**0
                  CONTENTS, READONLY

Disassembly of section .text._ZN15LedMatrixDriverD2Ev:

00000000 <_ZN15LedMatrixDriverD1Ev>:
   0:	20 e0       	ldi	r18, 0x00	; 0
   2:	30 e0       	ldi	r19, 0x00	; 0
   4:	fc 01       	movw	r30, r24
   6:	31 83       	std	Z+1, r19	; 0x01
   8:	20 83       	st	Z, r18
   a:	08 95       	ret

Disassembly of section .text._ZN15LedMatrixDriver13isOutOfBoundsEhh:

0000000c <_ZN15LedMatrixDriver13isOutOfBoundsEhh>:
   c:	fc 01       	movw	r30, r24
   e:	82 81       	ldd	r24, Z+2	; 0x02
  10:	68 17       	cp	r22, r24
  12:	00 f4       	brcc	.+0      	; 0x14 <_ZN15LedMatrixDriver13isOutOfBoundsEhh+0x8>
  14:	81 e0       	ldi	r24, 0x01	; 1
  16:	93 81       	ldd	r25, Z+3	; 0x03
  18:	49 17       	cp	r20, r25
  1a:	00 f4       	brcc	.+0      	; 0x1c <_ZN15LedMatrixDriver13isOutOfBoundsEhh+0x10>
  1c:	80 e0       	ldi	r24, 0x00	; 0
  1e:	08 95       	ret
  20:	81 e0       	ldi	r24, 0x01	; 1
  22:	08 95       	ret

Disassembly of section .text._ZN15LedMatrixDriverD0Ev:

00000030 <_ZN15LedMatrixDriverD0Ev>:
  30:	20 e0       	ldi	r18, 0x00	; 0
  32:	30 e0       	ldi	r19, 0x00	; 0
  34:	fc 01       	movw	r30, r24
  36:	31 83       	std	Z+1, r19	; 0x01
  38:	20 83       	st	Z, r18
  3a:	0c 94 00 00 	jmp	0	; 0x0 <__tmp_reg__>

Disassembly of section .text._ZN15LedMatrixDriverC2Ehh:

0000006e <_ZN15LedMatrixDriverC1Ehh>:
  6e:	fc 01       	movw	r30, r24
  70:	80 e0       	ldi	r24, 0x00	; 0
  72:	90 e0       	ldi	r25, 0x00	; 0
  74:	91 83       	std	Z+1, r25	; 0x01
  76:	80 83       	st	Z, r24
  78:	62 83       	std	Z+2, r22	; 0x02
  7a:	43 83       	std	Z+3, r20	; 0x03
  7c:	08 95       	ret
